target datalayout = "e-m:e-p270:32:32-p271:32:32-p272:64:64-i64:64-i128:128-f80:128-n8:16:32:64-S128"
target triple = "x86_64-pc-linux-gnu"

%"class.cvc5::internal::NodeTemplate" = type { ptr }

; Function Attrs: mustprogress uwtable
define hidden void @_ZN4cvc58internal13preprocessing17AssertionPipeline14replaceTrustedEmNS0_9TrustNodeENS0_7TrustIdE(ptr noundef nonnull align 8 dereferenceable(232) %0, i64 noundef %1, ptr noundef %2, i32 noundef %3) #4 align 2 personality ptr @__gxx_personality_v0 {
  %5 = alloca ptr, align 8
  %6 = alloca i64, align 8
  %7 = alloca ptr, align 8
  %8 = alloca i32, align 4
  %9 = alloca %"class.cvc5::internal::NodeTemplate", align 8
  %10 = alloca ptr, align 8
  %11 = alloca i32, align 4
  store ptr %0, ptr %5, align 8, !tbaa !3
  store i64 %1, ptr %6, align 8, !tbaa !84
  store ptr %2, ptr %7, align 8, !tbaa !141
  store i32 %3, ptr %8, align 4, !tbaa !78
  %12 = load ptr, ptr %5, align 8
  %13 = call noundef zeroext i1 @_ZNK4cvc58internal9TrustNode6isNullEv(ptr noundef nonnull align 8 dereferenceable(24) %2)
  br i1 %13, label %14, label %15

14:                                               ; preds = %4
  br label %21

15:                                               ; preds = %4
  %16 = load i64, ptr %6, align 8, !tbaa !84
  call void @_ZNK4cvc58internal9TrustNode7getNodeEv(ptr dead_on_unwind writable sret(%"class.cvc5::internal::NodeTemplate") align 8 %9, ptr noundef nonnull align 8 dereferenceable(24) %2)
  %17 = invoke noundef ptr @_ZNK4cvc58internal9TrustNode12getGeneratorEv(ptr noundef nonnull align 8 dereferenceable(24) %2)
          to label %18 unwind label %22

18:                                               ; preds = %15
  %19 = load i32, ptr %8, align 4, !tbaa !78
  invoke void @_ZN4cvc58internal13preprocessing17AssertionPipeline7replaceEmNS0_12NodeTemplateILb1EEEPNS0_14ProofGeneratorENS0_7TrustIdE(ptr noundef nonnull align 8 dereferenceable(232) %12, i64 noundef %16, ptr noundef %9, ptr noundef %17, i32 noundef %19)
          to label %20 unwind label %22

20:                                               ; preds = %18
  call void @_ZN4cvc58internal12NodeTemplateILb1EED2Ev(ptr noundef nonnull align 8 dereferenceable(8) %9) #3
  br label %21

21:                                               ; preds = %20, %14
  ret void

22:                                               ; preds = %18, %15
  %23 = landingpad { ptr, i32 }
          cleanup
  %24 = extractvalue { ptr, i32 } %23, 0
  store ptr %24, ptr %10, align 8
  %25 = extractvalue { ptr, i32 } %23, 1
  store i32 %25, ptr %11, align 4
  call void @_ZN4cvc58internal12NodeTemplateILb1EED2Ev(ptr noundef nonnull align 8 dereferenceable(8) %9) #3
  br label %26

26:                                               ; preds = %22
  %27 = load ptr, ptr %10, align 8
  %28 = load i32, ptr %11, align 4
  %29 = insertvalue { ptr, i32 } poison, ptr %27, 0
  %30 = insertvalue { ptr, i32 } %29, i32 %28, 1
  resume { ptr, i32 } %30
}