; Function Attrs: mustprogress uwtable
define hidden void @_ZN4cvc58internal13preprocessing17AssertionPipeline14replaceTrustedEmNS0_9TrustNodeENS0_7TrustIdE(ptr noundef nonnull align 8 dereferenceable(232) %0, i64 noundef %1, ptr noundef nonnull %2, i32 noundef %3) local_unnamed_addr #3 align 2 personality ptr @__gxx_personality_v0 {
  %5 = alloca %"class.cvc5::internal::NodeTemplate", align 8
  %6 = tail call noundef zeroext i1 @_ZNK4cvc58internal9TrustNode6isNullEv(ptr noundef nonnull align 8 dereferenceable(24) %2)
  br i1 %6, label %_ZN4cvc58internal12NodeTemplateILb1EED2Ev.exit, label %7

7:                                                ; preds = %4
  call void @_ZNK4cvc58internal9TrustNode7getNodeEv(ptr dead_on_unwind nonnull writable sret(%"class.cvc5::internal::NodeTemplate") align 8 %5, ptr noundef nonnull align 8 dereferenceable(24) %2)
  %8 = invoke noundef ptr @_ZNK4cvc58internal9TrustNode12getGeneratorEv(ptr noundef nonnull align 8 dereferenceable(24) %2)
          to label %9 unwind label %24

9:                                                ; preds = %7
  invoke void @_ZN4cvc58internal13preprocessing17AssertionPipeline7replaceEmNS0_12NodeTemplateILb1EEEPNS0_14ProofGeneratorENS0_7TrustIdE(ptr noundef nonnull align 8 dereferenceable(232) %0, i64 noundef %1, ptr noundef nonnull %5, ptr noundef %8, i32 noundef %3)
          to label %10 unwind label %24

10:                                               ; preds = %9
  %11 = load ptr, ptr %5, align 8, !tbaa !11
  %12 = load i64, ptr %11, align 8
  %13 = and i64 %12, 1152920405095219200
  %.not.i.i = icmp eq i64 %13, 1152920405095219200
  br i1 %.not.i.i, label %_ZN4cvc58internal12NodeTemplateILb1EED2Ev.exit, label %14, !prof !54

14:                                               ; preds = %10
  %15 = add i64 %12, 1152920405095219200
  %16 = and i64 %15, 1152920405095219200
  %17 = and i64 %12, -1152920405095219201
  %18 = or disjoint i64 %16, %17
  store i64 %18, ptr %11, align 8
  %19 = icmp eq i64 %16, 0
  br i1 %19, label %20, label %_ZN4cvc58internal12NodeTemplateILb1EED2Ev.exit, !prof !54

20:                                               ; preds = %14
  invoke void @_ZN4cvc58internal4expr9NodeValue15markForDeletionEv(ptr noundef nonnull align 8 dereferenceable(24) %11)
          to label %_ZN4cvc58internal12NodeTemplateILb1EED2Ev.exit unwind label %21

21:                                               ; preds = %20
  %22 = landingpad { ptr, i32 }
          catch ptr null
  %23 = extractvalue { ptr, i32 } %22, 0
  call void @__clang_call_terminate(ptr %23) #25
  unreachable

_ZN4cvc58internal12NodeTemplateILb1EED2Ev.exit:   ; preds = %20, %14, %10, %4
  ret void

24:                                               ; preds = %9, %7
  %25 = landingpad { ptr, i32 }
          cleanup
  call void @_ZN4cvc58internal12NodeTemplateILb1EED2Ev(ptr noundef nonnull align 8 dereferenceable(8) %5) #23
  resume { ptr, i32 } %25
}